target datalayout = "e-m:e-p270:32:32-p271:32:32-p272:64:64-i64:64-i128:128-f80:128-n8:16:32:64-S128"
target triple = "x86_64-pc-linux-gnu"

%struct.Gia_Man_t_ = type { ptr, ptr, i32, i32, i32, i32, ptr, ptr, i32, i32, i32, ptr, ptr, %struct.Vec_Int_t_, %struct.Vec_Int_t_, i32, i32, i32, %struct.Vec_Int_t_, ptr, ptr, ptr, i32, i32, i32, i32, ptr, ptr, ptr, ptr, ptr, i32, i32, ptr, i32, ptr, ptr, ptr, ptr, ptr, ptr, ptr, ptr, ptr, ptr, ptr, ptr, ptr, ptr, ptr, ptr, ptr, ptr, %struct.Vec_Int_t_, %struct.Vec_Int_t_, ptr, ptr, ptr, ptr, ptr, ptr, ptr, ptr, ptr, ptr, ptr, ptr, ptr, ptr, ptr, ptr, ptr, ptr, ptr, ptr, ptr, i32, float, float, ptr, ptr, i32, ptr, ptr, ptr, ptr, ptr, ptr, ptr, ptr, ptr, ptr, ptr, ptr, ptr, ptr, ptr, i64, i64, ptr, ptr, i32, i32, i32, i32, i32, i32, i32, i32, i32, i32, i32, i32, ptr, ptr, ptr, ptr, ptr, ptr, ptr, ptr, i32, i32, i32, ptr, i32, i32, ptr, ptr, ptr, ptr, ptr, ptr, i32, i32, ptr, %struct.Vec_Int_t_, %struct.Vec_Int_t_, %struct.Vec_Int_t_, ptr, ptr, ptr, i32, i32, i32, i32, ptr, ptr, ptr, ptr, ptr }
%struct.Vec_Int_t_ = type { i32, i32, ptr }
%struct.timespec = type { i64, i64 }
%struct.Gia_Obj_t_ = type <{ i64, i32 }>

@.str.6 = private unnamed_addr constant [11 x i8] c"Total time\00", align 1
@.str.9 = private unnamed_addr constant [5 x i8] c"%s =\00", align 1
@.str.10 = private unnamed_addr constant [11 x i8] c"%9.2f sec\0A\00", align 1

; Function Attrs: inlinehint nounwind uwtable
define internal ptr @Gia_ManObj(ptr noundef %0, i32 noundef %1) #3 {
  %3 = alloca ptr, align 8
  %4 = alloca i32, align 4
  store ptr %0, ptr %3, align 8, !tbaa !28
  store i32 %1, ptr %4, align 4, !tbaa !10
  %5 = load ptr, ptr %3, align 8, !tbaa !28
  %6 = getelementptr inbounds nuw %struct.Gia_Man_t_, ptr %5, i32 0, i32 6
  %7 = load ptr, ptr %6, align 8, !tbaa !65
  %8 = load i32, ptr %4, align 4, !tbaa !10
  %9 = sext i32 %8 to i64
  %10 = getelementptr inbounds %struct.Gia_Obj_t_, ptr %7, i64 %9
  ret ptr %10
}

; Function Attrs: inlinehint nounwind uwtable
define internal i32 @Vec_IntEntry(ptr noundef %0, i32 noundef %1) #3 {
  %3 = alloca ptr, align 8
  %4 = alloca i32, align 4
  store ptr %0, ptr %3, align 8, !tbaa !58
  store i32 %1, ptr %4, align 4, !tbaa !10
  %5 = load ptr, ptr %3, align 8, !tbaa !58
  %6 = getelementptr inbounds nuw %struct.Vec_Int_t_, ptr %5, i32 0, i32 2
  %7 = load ptr, ptr %6, align 8, !tbaa !66
  %8 = load i32, ptr %4, align 4, !tbaa !10
  %9 = sext i32 %8 to i64
  %10 = getelementptr inbounds i32, ptr %7, i64 %9
  %11 = load i32, ptr %10, align 4, !tbaa !10
  ret i32 %11
}

; Function Attrs: inlinehint nounwind uwtable
define internal void @Abc_PrintTime(i32 noundef %0, ptr noundef %1, i64 noundef %2) #3 {
  %4 = alloca i32, align 4
  %5 = alloca ptr, align 8
  %6 = alloca i64, align 8
  store i32 %0, ptr %4, align 4, !tbaa !10
  store ptr %1, ptr %5, align 8, !tbaa !25
  store i64 %2, ptr %6, align 8, !tbaa !23
  %7 = load ptr, ptr %5, align 8, !tbaa !25
  call void (i32, ptr, ...) @Abc_Print(i32 noundef 1, ptr noundef @.str.9, ptr noundef %7)
  %8 = load i64, ptr %6, align 8, !tbaa !23
  %9 = sitofp i64 %8 to double
  %10 = fmul double 1.000000e+00, %9
  %11 = fdiv double %10, 1.000000e+06
  call void (i32, ptr, ...) @Abc_Print(i32 noundef 1, ptr noundef @.str.10, double noundef %11)
  ret void
}

; Function Attrs: inlinehint nounwind uwtable
define internal ptr @Gia_ManCo(ptr noundef %0, i32 noundef %1) #3 {
  %3 = alloca ptr, align 8
  %4 = alloca i32, align 4
  store ptr %0, ptr %3, align 8, !tbaa !28
  store i32 %1, ptr %4, align 4, !tbaa !10
  %5 = load ptr, ptr %3, align 8, !tbaa !28
  %6 = load ptr, ptr %3, align 8, !tbaa !28
  %7 = getelementptr inbounds nuw %struct.Gia_Man_t_, ptr %6, i32 0, i32 12
  %8 = load ptr, ptr %7, align 8, !tbaa !40
  %9 = load i32, ptr %4, align 4, !tbaa !10
  %10 = call i32 @Vec_IntEntry(ptr noundef %8, i32 noundef %9)
  %11 = call ptr @Gia_ManObj(ptr noundef %5, i32 noundef %10)
  ret ptr %11
}

; Function Attrs: inlinehint nounwind uwtable
define internal i32 @Vec_IntSize(ptr noundef %0) #3 {
  %2 = alloca ptr, align 8
  store ptr %0, ptr %2, align 8, !tbaa !58
  %3 = load ptr, ptr %2, align 8, !tbaa !58
  %4 = getelementptr inbounds nuw %struct.Vec_Int_t_, ptr %3, i32 0, i32 1
  %5 = load i32, ptr %4, align 4, !tbaa !59
  ret i32 %5
}

; Function Attrs: inlinehint nounwind uwtable
define internal i64 @Abc_Clock() #3 {
  %1 = alloca i64, align 8
  %2 = alloca %struct.timespec, align 8
  %3 = alloca i32, align 4
  %4 = alloca i64, align 8
  call void @llvm.lifetime.start.p0(i64 16, ptr %2) #7
  %5 = call i32 @clock_gettime(i32 noundef 1, ptr noundef %2) #7
  %6 = icmp slt i32 %5, 0
  br i1 %6, label %7, label %8

7:                                                ; preds = %0
  store i64 -1, ptr %1, align 8
  store i32 1, ptr %3, align 4
  br label %19

8:                                                ; preds = %0
  call void @llvm.lifetime.start.p0(i64 8, ptr %4) #7
  %9 = getelementptr inbounds nuw %struct.timespec, ptr %2, i32 0, i32 0
  %10 = load i64, ptr %9, align 8, !tbaa !62
  %11 = mul nsw i64 %10, 1000000
  store i64 %11, ptr %4, align 8, !tbaa !23
  %12 = getelementptr inbounds nuw %struct.timespec, ptr %2, i32 0, i32 1
  %13 = load i64, ptr %12, align 8, !tbaa !64
  %14 = mul nsw i64 %13, 1000000
  %15 = sdiv i64 %14, 1000000000
  %16 = load i64, ptr %4, align 8, !tbaa !23
  %17 = add nsw i64 %16, %15
  store i64 %17, ptr %4, align 8, !tbaa !23
  %18 = load i64, ptr %4, align 8, !tbaa !23
  store i64 %18, ptr %1, align 8
  store i32 1, ptr %3, align 4
  call void @llvm.lifetime.end.p0(i64 8, ptr %4) #7
  br label %19

19:                                               ; preds = %8, %7
  call void @llvm.lifetime.end.p0(i64 16, ptr %2) #7
  %20 = load i64, ptr %1, align 8
  ret i64 %20
}

; Function Attrs: nounwind uwtable
define void @Gia_ManSat3Call(ptr noundef %0, i32 noundef %1) #0 {
  %3 = alloca ptr, align 8
  %4 = alloca i32, align 4
  %5 = alloca ptr, align 8
  %6 = alloca ptr, align 8
  %7 = alloca i32, align 4
  %8 = alloca i64, align 8
  %9 = alloca i32, align 4
  store ptr %0, ptr %3, align 8, !tbaa !28
  store i32 %1, ptr %4, align 4, !tbaa !10
  call void @llvm.lifetime.start.p0(i64 8, ptr %5) #7
  call void @llvm.lifetime.start.p0(i64 8, ptr %6) #7
  call void @llvm.lifetime.start.p0(i64 4, ptr %7) #7
  %10 = load i32, ptr %4, align 4, !tbaa !10
  %11 = icmp ne i32 %10, 0
  br i1 %11, label %12, label %43

12:                                               ; preds = %2
  call void @llvm.lifetime.start.p0(i64 8, ptr %8) #7
  %13 = call i64 @Abc_Clock()
  store i64 %13, ptr %8, align 8, !tbaa !23
  store i32 0, ptr %7, align 4, !tbaa !10
  br label %14

14:                                               ; preds = %36, %12
  %15 = load i32, ptr %7, align 4, !tbaa !10
  %16 = load ptr, ptr %3, align 8, !tbaa !28
  %17 = getelementptr inbounds nuw %struct.Gia_Man_t_, ptr %16, i32 0, i32 12
  %18 = load ptr, ptr %17, align 8, !tbaa !40
  %19 = call i32 @Vec_IntSize(ptr noundef %18)
  %20 = icmp slt i32 %15, %19
  br i1 %20, label %21, label %26

21:                                               ; preds = %14
  %22 = load ptr, ptr %3, align 8, !tbaa !28
  %23 = load i32, ptr %7, align 4, !tbaa !10
  %24 = call ptr @Gia_ManCo(ptr noundef %22, i32 noundef %23)
  store ptr %24, ptr %6, align 8, !tbaa !56
  %25 = icmp ne ptr %24, null
  br label %26

26:                                               ; preds = %21, %14
  %27 = phi i1 [ false, %14 ], [ %25, %21 ]
  br i1 %27, label %28, label %39

28:                                               ; preds = %26
  %29 = load ptr, ptr %3, align 8, !tbaa !28
  %30 = load ptr, ptr %6, align 8, !tbaa !56
  %31 = call ptr @Gia_ManDupDfsCone(ptr noundef %29, ptr noundef %30)
  store ptr %31, ptr %5, align 8, !tbaa !28
  %32 = load ptr, ptr %5, align 8, !tbaa !28
  %33 = load i32, ptr %7, align 4, !tbaa !10
  %34 = call i32 @Gia_ManSat3CallOne(ptr noundef %32, i32 noundef %33)
  %35 = load ptr, ptr %5, align 8, !tbaa !28
  call void @Gia_ManStop(ptr noundef %35)
  br label %36

36:                                               ; preds = %28
  %37 = load i32, ptr %7, align 4, !tbaa !10
  %38 = add nsw i32 %37, 1
  store i32 %38, ptr %7, align 4, !tbaa !10
  br label %14, !llvm.loop !57

39:                                               ; preds = %26
  %40 = call i64 @Abc_Clock()
  %41 = load i64, ptr %8, align 8, !tbaa !23
  %42 = sub nsw i64 %40, %41
  call void @Abc_PrintTime(i32 noundef 1, ptr noundef @.str.6, i64 noundef %42)
  store i32 1, ptr %9, align 4
  call void @llvm.lifetime.end.p0(i64 8, ptr %8) #7
  br label %46

43:                                               ; preds = %2
  %44 = load ptr, ptr %3, align 8, !tbaa !28
  %45 = call i32 @Gia_ManSat3CallOne(ptr noundef %44, i32 noundef -1)
  store i32 0, ptr %9, align 4
  br label %46

46:                                               ; preds = %43, %39
  call void @llvm.lifetime.end.p0(i64 4, ptr %7) #7
  call void @llvm.lifetime.end.p0(i64 8, ptr %6) #7
  call void @llvm.lifetime.end.p0(i64 8, ptr %5) #7
  %47 = load i32, ptr %9, align 4
  switch i32 %47, label %49 [
    i32 0, label %48
    i32 1, label %48
  ]

48:                                               ; preds = %46, %46
  ret void

49:                                               ; preds = %46
  unreachable
}