; Function Attrs: nounwind uwtable
define void @Gia_ManSat3Call(ptr noundef %0, i32 noundef %1) local_unnamed_addr #0 {
  %3 = alloca %struct.timespec, align 8
  %4 = alloca %struct.timespec, align 8
  %.not = icmp eq i32 %1, 0
  br i1 %.not, label %43, label %5

5:                                                ; preds = %2
  call void @llvm.lifetime.start.p0(i64 16, ptr nonnull %4) #9
  %6 = call i32 @clock_gettime(i32 noundef 1, ptr noundef nonnull %4) #9
  %7 = icmp slt i32 %6, 0
  br i1 %7, label %Abc_Clock.exit, label %8

8:                                                ; preds = %5
  %9 = load i64, ptr %4, align 8, !tbaa !24
  %.neg18 = mul i64 %9, -1000000
  %10 = getelementptr inbounds nuw i8, ptr %4, i64 8
  %11 = load i64, ptr %10, align 8, !tbaa !27
  %.neg = sdiv i64 %11, -1000
  %.neg19 = add i64 %.neg, %.neg18
  br label %Abc_Clock.exit

Abc_Clock.exit:                                   ; preds = %5, %8
  %.0.i.neg = phi i64 [ %.neg19, %8 ], [ 1, %5 ]
  call void @llvm.lifetime.end.p0(i64 16, ptr nonnull %4) #9
  %12 = getelementptr i8, ptr %0, i64 32
  %13 = getelementptr inbounds nuw i8, ptr %0, i64 72
  %14 = load ptr, ptr %13, align 8, !tbaa !38
  %15 = getelementptr i8, ptr %14, i64 4
  %.val20 = load i32, ptr %15, align 4, !tbaa !55
  %16 = icmp sgt i32 %.val20, 0
  br i1 %16, label %.lr.ph, label %.critedge

.lr.ph:                                           ; preds = %Abc_Clock.exit, %18
  %indvars.iv = phi i64 [ %indvars.iv.next, %18 ], [ 0, %Abc_Clock.exit ]
  %17 = phi ptr [ %27, %18 ], [ %14, %Abc_Clock.exit ]
  %.val14 = load ptr, ptr %12, align 8, !tbaa !56
  %.not13 = icmp eq ptr %.val14, null
  br i1 %.not13, label %.critedge, label %18

18:                                               ; preds = %.lr.ph
  %19 = getelementptr i8, ptr %17, i64 8
  %.val15.val = load ptr, ptr %19, align 8, !tbaa !57
  %20 = getelementptr inbounds nuw i32, ptr %.val15.val, i64 %indvars.iv
  %21 = load i32, ptr %20, align 4, !tbaa !18
  %22 = sext i32 %21 to i64
  %23 = getelementptr inbounds %struct.Gia_Obj_t_, ptr %.val14, i64 %22
  %24 = call ptr @Gia_ManDupDfsCone(ptr noundef nonnull %0, ptr noundef nonnull %23) #9
  %25 = trunc nuw nsw i64 %indvars.iv to i32
  %26 = call i32 @Gia_ManSat3CallOne(ptr noundef %24, i32 noundef %25)
  call void @Gia_ManStop(ptr noundef %24) #9
  %indvars.iv.next = add nuw nsw i64 %indvars.iv, 1
  %27 = load ptr, ptr %13, align 8, !tbaa !38
  %28 = getelementptr i8, ptr %27, i64 4
  %.val = load i32, ptr %28, align 4, !tbaa !55
  %29 = sext i32 %.val to i64
  %30 = icmp slt i64 %indvars.iv.next, %29
  br i1 %30, label %.lr.ph, label %.critedge, !llvm.loop !58

.critedge:                                        ; preds = %.lr.ph, %18, %Abc_Clock.exit
  call void @llvm.lifetime.start.p0(i64 16, ptr nonnull %3) #9
  %31 = call i32 @clock_gettime(i32 noundef 1, ptr noundef nonnull %3) #9
  %32 = icmp slt i32 %31, 0
  br i1 %32, label %Abc_Clock.exit17, label %33

33:                                               ; preds = %.critedge
  %34 = load i64, ptr %3, align 8, !tbaa !24
  %35 = mul nsw i64 %34, 1000000
  %36 = getelementptr inbounds nuw i8, ptr %3, i64 8
  %37 = load i64, ptr %36, align 8, !tbaa !27
  %38 = sdiv i64 %37, 1000
  %39 = add nsw i64 %38, %35
  br label %Abc_Clock.exit17

Abc_Clock.exit17:                                 ; preds = %.critedge, %33
  %.0.i16 = phi i64 [ %39, %33 ], [ -1, %.critedge ]
  call void @llvm.lifetime.end.p0(i64 16, ptr nonnull %3) #9
  %40 = add i64 %.0.i16, %.0.i.neg
  call void (i32, ptr, ...) @Abc_Print(i32 poison, ptr noundef nonnull @.str.9, ptr noundef nonnull @.str.6)
  %41 = sitofp i64 %40 to double
  %42 = fdiv double %41, 1.000000e+06
  call void (i32, ptr, ...) @Abc_Print(i32 poison, ptr noundef nonnull @.str.10, double noundef %42)
  br label %45

43:                                               ; preds = %2
  %44 = tail call i32 @Gia_ManSat3CallOne(ptr noundef %0, i32 noundef -1)
  br label %45

45:                                               ; preds = %43, %Abc_Clock.exit17
  ret void
}